; Function Attrs: mustprogress uwtable
define hidden void @_ZN11doc_manager6mk_varER11ast_managerj(ptr noalias nocapture writeonly sret(%class.obj_ref) align 8 %agg.result, ptr nocapture noundef nonnull readnone align 8 dereferenceable(1080) %this, ptr noundef nonnull align 8 dereferenceable(976) %m, i32 noundef %i) local_unnamed_addr #3 align 2 {
entry:
  %ref.tmp = alloca %class.symbol, align 8
  %conv.i = zext i32 %i to i64
  %shl.i = shl nuw nsw i64 %conv.i, 3
  %or.i = or disjoint i64 %shl.i, 1
  %0 = inttoptr i64 %or.i to ptr
  store ptr %0, ptr %ref.tmp, align 8
  %m_bool_sort.i = getelementptr inbounds i8, ptr %m, i64 840
  %1 = load ptr, ptr %m_bool_sort.i, align 8
  %call.i.i.i = call noundef ptr @_ZN11ast_manager12mk_func_declERK6symboljPKP4sortS4_P14func_decl_info(ptr noundef nonnull align 8 dereferenceable(976) %m, ptr noundef nonnull align 8 dereferenceable(8) %ref.tmp, i32 noundef 0, ptr noundef null, ptr noundef %1, ptr noundef null)
  %call.i.i = call noundef ptr @_ZN11ast_manager6mk_appEP9func_decljPKP4expr(ptr noundef nonnull align 8 dereferenceable(976) %m, ptr noundef %call.i.i.i, i32 noundef 0, ptr noundef null)
  store ptr %call.i.i, ptr %agg.result, align 8
  %m_manager.i = getelementptr inbounds i8, ptr %agg.result, i64 8
  store ptr %m, ptr %m_manager.i, align 8
  %tobool.not.i.i = icmp eq ptr %call.i.i, null
  br i1 %tobool.not.i.i, label %_ZN7obj_refI4expr11ast_managerEC2EPS0_RS1_.exit, label %_ZN11ast_manager7inc_refEP3ast.exit.i.i

_ZN11ast_manager7inc_refEP3ast.exit.i.i:          ; preds = %entry
  %m_ref_count.i.i.i.i = getelementptr inbounds i8, ptr %call.i.i, i64 8
  %2 = load i32, ptr %m_ref_count.i.i.i.i, align 4
  %inc.i.i.i.i = add i32 %2, 1
  store i32 %inc.i.i.i.i, ptr %m_ref_count.i.i.i.i, align 4
  br label %_ZN7obj_refI4expr11ast_managerEC2EPS0_RS1_.exit

_ZN7obj_refI4expr11ast_managerEC2EPS0_RS1_.exit:  ; preds = %entry, %_ZN11ast_manager7inc_refEP3ast.exit.i.i
  ret void
}